ccopy_reg
_reconstructor
p0
(cdedupe.datamodel
DataModel
p1
c__builtin__
dict
p2
(dp3
S'fields'
p4
(lp5
g0
(cdedupe.variables.string
StringType
p6
c__builtin__
object
p7
Ntp8
Rp9
(dp10
S'predicates'
p11
(lp12
g0
(cdedupe.predicates
SimplePredicate
p13
g7
Ntp14
Rp15
(dp16
S'__name__'
p17
S'(wholeFieldPredicate, community)'
p18
sS'func'
p19
cdedupe.predicates
wholeFieldPredicate
p20
sS'field'
p21
S'community'
p22
sbag0
(g13
g7
Ntp23
Rp24
(dp25
g17
S'(firstTokenPredicate, community)'
p26
sg19
cdedupe.predicates
firstTokenPredicate
p27
sg21
g22
sbag0
(g13
g7
Ntp28
Rp29
(dp30
g17
S'(commonIntegerPredicate, community)'
p31
sg19
cdedupe.predicates
commonIntegerPredicate
p32
sg21
g22
sbag0
(g13
g7
Ntp33
Rp34
(dp35
g17
S'(nearIntegersPredicate, community)'
p36
sg19
cdedupe.predicates
nearIntegersPredicate
p37
sg21
g22
sbag0
(g13
g7
Ntp38
Rp39
(dp40
g17
S'(firstIntegerPredicate, community)'
p41
sg19
cdedupe.predicates
firstIntegerPredicate
p42
sg21
g22
sbag0
(g13
g7
Ntp43
Rp44
(dp45
g17
S'(sameThreeCharStartPredicate, community)'
p46
sg19
cdedupe.predicates
sameThreeCharStartPredicate
p47
sg21
g22
sbag0
(g13
g7
Ntp48
Rp49
(dp50
g17
S'(sameFiveCharStartPredicate, community)'
p51
sg19
cdedupe.predicates
sameFiveCharStartPredicate
p52
sg21
g22
sbag0
(g13
g7
Ntp53
Rp54
(dp55
g17
S'(sameSevenCharStartPredicate, community)'
p56
sg19
cdedupe.predicates
sameSevenCharStartPredicate
p57
sg21
g22
sbag0
(g13
g7
Ntp58
Rp59
(dp60
g17
S'(commonTwoTokens, community)'
p61
sg19
cdedupe.predicates
commonTwoTokens
p62
sg21
g22
sbag0
(g13
g7
Ntp63
Rp64
(dp65
g17
S'(commonThreeTokens, community)'
p66
sg19
cdedupe.predicates
commonThreeTokens
p67
sg21
g22
sbag0
(g13
g7
Ntp68
Rp69
(dp70
g17
S'(fingerprint, community)'
p71
sg19
cdedupe.predicates
fingerprint
p72
sg21
g22
sbag0
(g13
g7
Ntp73
Rp74
(dp75
g17
S'(oneGramFingerprint, community)'
p76
sg19
cdedupe.predicates
oneGramFingerprint
p77
sg21
g22
sbag0
(g13
g7
Ntp78
Rp79
(dp80
g17
S'(twoGramFingerprint, community)'
p81
sg19
cdedupe.predicates
twoGramFingerprint
p82
sg21
g22
sbag0
(g13
g7
Ntp83
Rp84
(dp85
g17
S'(sortedAcronym, community)'
p86
sg19
cdedupe.predicates
sortedAcronym
p87
sg21
g22
sbag0
(g13
g7
Ntp88
Rp89
(dp90
g17
S'(commonFourGram, community)'
p91
sg19
cdedupe.predicates
commonFourGram
p92
sg21
g22
sbag0
(g13
g7
Ntp93
Rp94
(dp95
g17
S'(commonSixGram, community)'
p96
sg19
cdedupe.predicates
commonSixGram
p97
sg21
g22
sbag0
(g13
g7
Ntp98
Rp99
(dp100
g17
S'(tokenFieldPredicate, community)'
p101
sg19
cdedupe.predicates
tokenFieldPredicate
p102
sg21
g22
sbag0
(g13
g7
Ntp103
Rp104
(dp105
g17
S'(suffixArray, community)'
p106
sg19
cdedupe.predicates
suffixArray
p107
sg21
g22
sbag0
(g13
g7
Ntp108
Rp109
(dp110
g17
S'(doubleMetaphone, community)'
p111
sg19
cdedupe.predicates
doubleMetaphone
p112
sg21
g22
sbag0
(g13
g7
Ntp113
Rp114
(dp115
g17
S'(metaphoneToken, community)'
p116
sg19
cdedupe.predicates
metaphoneToken
p117
sg21
g22
sbag0
(cdedupe.predicates
TfidfNGramCanopyPredicate
p118
g7
Ntp119
Rp120
(dp121
S'threshold'
p122
F0.2
sg17
S'(0.2, community)'
p123
sg21
g22
sbag0
(g118
g7
Ntp124
Rp125
(dp126
g122
F0.4
sg17
S'(0.4, community)'
p127
sg21
g22
sbag0
(g118
g7
Ntp128
Rp129
(dp130
g122
F0.6
sg17
S'(0.6, community)'
p131
sg21
g22
sbag0
(g118
g7
Ntp132
Rp133
(dp134
g122
F0.8
sg17
S'(0.8, community)'
p135
sg21
g22
sbag0
(cdedupe.predicates
TfidfNGramSearchPredicate
p136
g7
Ntp137
Rp138
(dp139
g122
F0.2
sg17
S'(0.2, community)'
p140
sg21
g22
sbag0
(g136
g7
Ntp141
Rp142
(dp143
g122
F0.4
sg17
S'(0.4, community)'
p144
sg21
g22
sbag0
(g136
g7
Ntp145
Rp146
(dp147
g122
F0.6
sg17
S'(0.6, community)'
p148
sg21
g22
sbag0
(g136
g7
Ntp149
Rp150
(dp151
g122
F0.8
sg17
S'(0.8, community)'
p152
sg21
g22
sbag0
(cdedupe.predicates
TfidfTextCanopyPredicate
p153
g7
Ntp154
Rp155
(dp156
g122
F0.2
sg17
S'(0.2, community)'
p157
sg21
g22
sbag0
(g153
g7
Ntp158
Rp159
(dp160
g122
F0.4
sg17
S'(0.4, community)'
p161
sg21
g22
sbag0
(g153
g7
Ntp162
Rp163
(dp164
g122
F0.6
sg17
S'(0.6, community)'
p165
sg21
g22
sbag0
(g153
g7
Ntp166
Rp167
(dp168
g122
F0.8
sg17
S'(0.8, community)'
p169
sg21
g22
sbag0
(cdedupe.predicates
TfidfTextSearchPredicate
p170
g7
Ntp171
Rp172
(dp173
g122
F0.2
sg17
S'(0.2, community)'
p174
sg21
g22
sbag0
(g170
g7
Ntp175
Rp176
(dp177
g122
F0.4
sg17
S'(0.4, community)'
p178
sg21
g22
sbag0
(g170
g7
Ntp179
Rp180
(dp181
g122
F0.6
sg17
S'(0.6, community)'
p182
sg21
g22
sbag0
(g170
g7
Ntp183
Rp184
(dp185
g122
F0.8
sg17
S'(0.8, community)'
p186
sg21
g22
sbasg21
g22
sS'name'
p187
S'(community: String)'
p188
sS'weight'
p189
F-0.6528449320572234
sS'has_missing'
p190
I00
sbag0
(g6
g7
Ntp191
Rp192
(dp193
g11
(lp194
g0
(g13
g7
Ntp195
Rp196
(dp197
g17
S'(wholeFieldPredicate, address)'
p198
sg19
g20
sg21
S'address'
p199
sbag0
(g13
g7
Ntp200
Rp201
(dp202
g17
S'(firstTokenPredicate, address)'
p203
sg19
g27
sg21
g199
sbag0
(g13
g7
Ntp204
Rp205
(dp206
g17
S'(commonIntegerPredicate, address)'
p207
sg19
g32
sg21
g199
sbag0
(g13
g7
Ntp208
Rp209
(dp210
g17
S'(nearIntegersPredicate, address)'
p211
sg19
g37
sg21
g199
sbag0
(g13
g7
Ntp212
Rp213
(dp214
g17
S'(firstIntegerPredicate, address)'
p215
sg19
g42
sg21
g199
sbag0
(g13
g7
Ntp216
Rp217
(dp218
g17
S'(sameThreeCharStartPredicate, address)'
p219
sg19
g47
sg21
g199
sbag0
(g13
g7
Ntp220
Rp221
(dp222
g17
S'(sameFiveCharStartPredicate, address)'
p223
sg19
g52
sg21
g199
sbag0
(g13
g7
Ntp224
Rp225
(dp226
g17
S'(sameSevenCharStartPredicate, address)'
p227
sg19
g57
sg21
g199
sbag0
(g13
g7
Ntp228
Rp229
(dp230
g17
S'(commonTwoTokens, address)'
p231
sg19
g62
sg21
g199
sbag0
(g13
g7
Ntp232
Rp233
(dp234
g17
S'(commonThreeTokens, address)'
p235
sg19
g67
sg21
g199
sbag0
(g13
g7
Ntp236
Rp237
(dp238
g17
S'(fingerprint, address)'
p239
sg19
g72
sg21
g199
sbag0
(g13
g7
Ntp240
Rp241
(dp242
g17
S'(oneGramFingerprint, address)'
p243
sg19
g77
sg21
g199
sbag0
(g13
g7
Ntp244
Rp245
(dp246
g17
S'(twoGramFingerprint, address)'
p247
sg19
g82
sg21
g199
sbag0
(g13
g7
Ntp248
Rp249
(dp250
g17
S'(sortedAcronym, address)'
p251
sg19
g87
sg21
g199
sbag0
(g13
g7
Ntp252
Rp253
(dp254
g17
S'(commonFourGram, address)'
p255
sg19
g92
sg21
g199
sbag0
(g13
g7
Ntp256
Rp257
(dp258
g17
S'(commonSixGram, address)'
p259
sg19
g97
sg21
g199
sbag0
(g13
g7
Ntp260
Rp261
(dp262
g17
S'(tokenFieldPredicate, address)'
p263
sg19
g102
sg21
g199
sbag0
(g13
g7
Ntp264
Rp265
(dp266
g17
S'(suffixArray, address)'
p267
sg19
g107
sg21
g199
sbag0
(g13
g7
Ntp268
Rp269
(dp270
g17
S'(doubleMetaphone, address)'
p271
sg19
g112
sg21
g199
sbag0
(g13
g7
Ntp272
Rp273
(dp274
g17
S'(metaphoneToken, address)'
p275
sg19
g117
sg21
g199
sbag0
(g118
g7
Ntp276
Rp277
(dp278
g122
F0.2
sg17
S'(0.2, address)'
p279
sg21
g199
sbag0
(g118
g7
Ntp280
Rp281
(dp282
g122
F0.4
sg17
S'(0.4, address)'
p283
sg21
g199
sbag0
(g118
g7
Ntp284
Rp285
(dp286
g122
F0.6
sg17
S'(0.6, address)'
p287
sg21
g199
sbag0
(g118
g7
Ntp288
Rp289
(dp290
g122
F0.8
sg17
S'(0.8, address)'
p291
sg21
g199
sbag0
(g136
g7
Ntp292
Rp293
(dp294
g122
F0.2
sg17
S'(0.2, address)'
p295
sg21
g199
sbag0
(g136
g7
Ntp296
Rp297
(dp298
g122
F0.4
sg17
S'(0.4, address)'
p299
sg21
g199
sbag0
(g136
g7
Ntp300
Rp301
(dp302
g122
F0.6
sg17
S'(0.6, address)'
p303
sg21
g199
sbag0
(g136
g7
Ntp304
Rp305
(dp306
g122
F0.8
sg17
S'(0.8, address)'
p307
sg21
g199
sbag0
(g153
g7
Ntp308
Rp309
(dp310
g122
F0.2
sg17
S'(0.2, address)'
p311
sg21
g199
sbag0
(g153
g7
Ntp312
Rp313
(dp314
g122
F0.4
sg17
S'(0.4, address)'
p315
sg21
g199
sbag0
(g153
g7
Ntp316
Rp317
(dp318
g122
F0.6
sg17
S'(0.6, address)'
p319
sg21
g199
sbag0
(g153
g7
Ntp320
Rp321
(dp322
g122
F0.8
sg17
S'(0.8, address)'
p323
sg21
g199
sbag0
(g170
g7
Ntp324
Rp325
(dp326
g122
F0.2
sg17
S'(0.2, address)'
p327
sg21
g199
sbag0
(g170
g7
Ntp328
Rp329
(dp330
g122
F0.4
sg17
S'(0.4, address)'
p331
sg21
g199
sbag0
(g170
g7
Ntp332
Rp333
(dp334
g122
F0.6
sg17
S'(0.6, address)'
p335
sg21
g199
sbag0
(g170
g7
Ntp336
Rp337
(dp338
g122
F0.8
sg17
S'(0.8, address)'
p339
sg21
g199
sbasg21
g199
sg187
S'(address: String)'
p340
sg189
F-0.796190658118353
sg190
I00
sbag0
(cdedupe.variables.string
ShortStringType
p341
g7
Ntp342
Rp343
(dp344
g11
(lp345
g0
(g13
g7
Ntp346
Rp347
(dp348
g17
S'(wholeFieldPredicate, city)'
p349
sg19
g20
sg21
S'city'
p350
sbag0
(g13
g7
Ntp351
Rp352
(dp353
g17
S'(firstTokenPredicate, city)'
p354
sg19
g27
sg21
g350
sbag0
(g13
g7
Ntp355
Rp356
(dp357
g17
S'(commonIntegerPredicate, city)'
p358
sg19
g32
sg21
g350
sbag0
(g13
g7
Ntp359
Rp360
(dp361
g17
S'(nearIntegersPredicate, city)'
p362
sg19
g37
sg21
g350
sbag0
(g13
g7
Ntp363
Rp364
(dp365
g17
S'(firstIntegerPredicate, city)'
p366
sg19
g42
sg21
g350
sbag0
(g13
g7
Ntp367
Rp368
(dp369
g17
S'(sameThreeCharStartPredicate, city)'
p370
sg19
g47
sg21
g350
sbag0
(g13
g7
Ntp371
Rp372
(dp373
g17
S'(sameFiveCharStartPredicate, city)'
p374
sg19
g52
sg21
g350
sbag0
(g13
g7
Ntp375
Rp376
(dp377
g17
S'(sameSevenCharStartPredicate, city)'
p378
sg19
g57
sg21
g350
sbag0
(g13
g7
Ntp379
Rp380
(dp381
g17
S'(commonTwoTokens, city)'
p382
sg19
g62
sg21
g350
sbag0
(g13
g7
Ntp383
Rp384
(dp385
g17
S'(commonThreeTokens, city)'
p386
sg19
g67
sg21
g350
sbag0
(g13
g7
Ntp387
Rp388
(dp389
g17
S'(fingerprint, city)'
p390
sg19
g72
sg21
g350
sbag0
(g13
g7
Ntp391
Rp392
(dp393
g17
S'(oneGramFingerprint, city)'
p394
sg19
g77
sg21
g350
sbag0
(g13
g7
Ntp395
Rp396
(dp397
g17
S'(twoGramFingerprint, city)'
p398
sg19
g82
sg21
g350
sbag0
(g13
g7
Ntp399
Rp400
(dp401
g17
S'(sortedAcronym, city)'
p402
sg19
g87
sg21
g350
sbag0
(g13
g7
Ntp403
Rp404
(dp405
g17
S'(commonFourGram, city)'
p406
sg19
g92
sg21
g350
sbag0
(g13
g7
Ntp407
Rp408
(dp409
g17
S'(commonSixGram, city)'
p410
sg19
g97
sg21
g350
sbag0
(g13
g7
Ntp411
Rp412
(dp413
g17
S'(tokenFieldPredicate, city)'
p414
sg19
g102
sg21
g350
sbag0
(g13
g7
Ntp415
Rp416
(dp417
g17
S'(suffixArray, city)'
p418
sg19
g107
sg21
g350
sbag0
(g13
g7
Ntp419
Rp420
(dp421
g17
S'(doubleMetaphone, city)'
p422
sg19
g112
sg21
g350
sbag0
(g13
g7
Ntp423
Rp424
(dp425
g17
S'(metaphoneToken, city)'
p426
sg19
g117
sg21
g350
sbag0
(g118
g7
Ntp427
Rp428
(dp429
g122
F0.2
sg17
S'(0.2, city)'
p430
sg21
g350
sbag0
(g118
g7
Ntp431
Rp432
(dp433
g122
F0.4
sg17
S'(0.4, city)'
p434
sg21
g350
sbag0
(g118
g7
Ntp435
Rp436
(dp437
g122
F0.6
sg17
S'(0.6, city)'
p438
sg21
g350
sbag0
(g118
g7
Ntp439
Rp440
(dp441
g122
F0.8
sg17
S'(0.8, city)'
p442
sg21
g350
sbag0
(g136
g7
Ntp443
Rp444
(dp445
g122
F0.2
sg17
S'(0.2, city)'
p446
sg21
g350
sbag0
(g136
g7
Ntp447
Rp448
(dp449
g122
F0.4
sg17
S'(0.4, city)'
p450
sg21
g350
sbag0
(g136
g7
Ntp451
Rp452
(dp453
g122
F0.6
sg17
S'(0.6, city)'
p454
sg21
g350
sbag0
(g136
g7
Ntp455
Rp456
(dp457
g122
F0.8
sg17
S'(0.8, city)'
p458
sg21
g350
sbasg21
g350
sg187
S'(city: ShortString)'
p459
sg189
F-0.03156271616654785
sg190
I00
sbag0
(g341
g7
Ntp460
Rp461
(dp462
g11
(lp463
g0
(g13
g7
Ntp464
Rp465
(dp466
g17
S'(wholeFieldPredicate, state)'
p467
sg19
g20
sg21
S'state'
p468
sbag0
(g13
g7
Ntp469
Rp470
(dp471
g17
S'(firstTokenPredicate, state)'
p472
sg19
g27
sg21
g468
sbag0
(g13
g7
Ntp473
Rp474
(dp475
g17
S'(commonIntegerPredicate, state)'
p476
sg19
g32
sg21
g468
sbag0
(g13
g7
Ntp477
Rp478
(dp479
g17
S'(nearIntegersPredicate, state)'
p480
sg19
g37
sg21
g468
sbag0
(g13
g7
Ntp481
Rp482
(dp483
g17
S'(firstIntegerPredicate, state)'
p484
sg19
g42
sg21
g468
sbag0
(g13
g7
Ntp485
Rp486
(dp487
g17
S'(sameThreeCharStartPredicate, state)'
p488
sg19
g47
sg21
g468
sbag0
(g13
g7
Ntp489
Rp490
(dp491
g17
S'(sameFiveCharStartPredicate, state)'
p492
sg19
g52
sg21
g468
sbag0
(g13
g7
Ntp493
Rp494
(dp495
g17
S'(sameSevenCharStartPredicate, state)'
p496
sg19
g57
sg21
g468
sbag0
(g13
g7
Ntp497
Rp498
(dp499
g17
S'(commonTwoTokens, state)'
p500
sg19
g62
sg21
g468
sbag0
(g13
g7
Ntp501
Rp502
(dp503
g17
S'(commonThreeTokens, state)'
p504
sg19
g67
sg21
g468
sbag0
(g13
g7
Ntp505
Rp506
(dp507
g17
S'(fingerprint, state)'
p508
sg19
g72
sg21
g468
sbag0
(g13
g7
Ntp509
Rp510
(dp511
g17
S'(oneGramFingerprint, state)'
p512
sg19
g77
sg21
g468
sbag0
(g13
g7
Ntp513
Rp514
(dp515
g17
S'(twoGramFingerprint, state)'
p516
sg19
g82
sg21
g468
sbag0
(g13
g7
Ntp517
Rp518
(dp519
g17
S'(sortedAcronym, state)'
p520
sg19
g87
sg21
g468
sbag0
(g13
g7
Ntp521
Rp522
(dp523
g17
S'(commonFourGram, state)'
p524
sg19
g92
sg21
g468
sbag0
(g13
g7
Ntp525
Rp526
(dp527
g17
S'(commonSixGram, state)'
p528
sg19
g97
sg21
g468
sbag0
(g13
g7
Ntp529
Rp530
(dp531
g17
S'(tokenFieldPredicate, state)'
p532
sg19
g102
sg21
g468
sbag0
(g13
g7
Ntp533
Rp534
(dp535
g17
S'(suffixArray, state)'
p536
sg19
g107
sg21
g468
sbag0
(g13
g7
Ntp537
Rp538
(dp539
g17
S'(doubleMetaphone, state)'
p540
sg19
g112
sg21
g468
sbag0
(g13
g7
Ntp541
Rp542
(dp543
g17
S'(metaphoneToken, state)'
p544
sg19
g117
sg21
g468
sbag0
(g118
g7
Ntp545
Rp546
(dp547
g122
F0.2
sg17
S'(0.2, state)'
p548
sg21
g468
sbag0
(g118
g7
Ntp549
Rp550
(dp551
g122
F0.4
sg17
S'(0.4, state)'
p552
sg21
g468
sbag0
(g118
g7
Ntp553
Rp554
(dp555
g122
F0.6
sg17
S'(0.6, state)'
p556
sg21
g468
sbag0
(g118
g7
Ntp557
Rp558
(dp559
g122
F0.8
sg17
S'(0.8, state)'
p560
sg21
g468
sbag0
(g136
g7
Ntp561
Rp562
(dp563
g122
F0.2
sg17
S'(0.2, state)'
p564
sg21
g468
sbag0
(g136
g7
Ntp565
Rp566
(dp567
g122
F0.4
sg17
S'(0.4, state)'
p568
sg21
g468
sbag0
(g136
g7
Ntp569
Rp570
(dp571
g122
F0.6
sg17
S'(0.6, state)'
p572
sg21
g468
sbag0
(g136
g7
Ntp573
Rp574
(dp575
g122
F0.8
sg17
S'(0.8, state)'
p576
sg21
g468
sbasg21
g468
sg187
S'(state: ShortString)'
p577
sg189
F-2.570162667677411e-06
sg190
I00
sbag0
(g341
g7
Ntp578
Rp579
(dp580
g11
(lp581
g0
(g13
g7
Ntp582
Rp583
(dp584
g17
S'(wholeFieldPredicate, zip)'
p585
sg19
g20
sg21
S'zip'
p586
sbag0
(g13
g7
Ntp587
Rp588
(dp589
g17
S'(firstTokenPredicate, zip)'
p590
sg19
g27
sg21
g586
sbag0
(g13
g7
Ntp591
Rp592
(dp593
g17
S'(commonIntegerPredicate, zip)'
p594
sg19
g32
sg21
g586
sbag0
(g13
g7
Ntp595
Rp596
(dp597
g17
S'(nearIntegersPredicate, zip)'
p598
sg19
g37
sg21
g586
sbag0
(g13
g7
Ntp599
Rp600
(dp601
g17
S'(firstIntegerPredicate, zip)'
p602
sg19
g42
sg21
g586
sbag0
(g13
g7
Ntp603
Rp604
(dp605
g17
S'(sameThreeCharStartPredicate, zip)'
p606
sg19
g47
sg21
g586
sbag0
(g13
g7
Ntp607
Rp608
(dp609
g17
S'(sameFiveCharStartPredicate, zip)'
p610
sg19
g52
sg21
g586
sbag0
(g13
g7
Ntp611
Rp612
(dp613
g17
S'(sameSevenCharStartPredicate, zip)'
p614
sg19
g57
sg21
g586
sbag0
(g13
g7
Ntp615
Rp616
(dp617
g17
S'(commonTwoTokens, zip)'
p618
sg19
g62
sg21
g586
sbag0
(g13
g7
Ntp619
Rp620
(dp621
g17
S'(commonThreeTokens, zip)'
p622
sg19
g67
sg21
g586
sbag0
(g13
g7
Ntp623
Rp624
(dp625
g17
S'(fingerprint, zip)'
p626
sg19
g72
sg21
g586
sbag0
(g13
g7
Ntp627
Rp628
(dp629
g17
S'(oneGramFingerprint, zip)'
p630
sg19
g77
sg21
g586
sbag0
(g13
g7
Ntp631
Rp632
(dp633
g17
S'(twoGramFingerprint, zip)'
p634
sg19
g82
sg21
g586
sbag0
(g13
g7
Ntp635
Rp636
(dp637
g17
S'(sortedAcronym, zip)'
p638
sg19
g87
sg21
g586
sbag0
(g13
g7
Ntp639
Rp640
(dp641
g17
S'(commonFourGram, zip)'
p642
sg19
g92
sg21
g586
sbag0
(g13
g7
Ntp643
Rp644
(dp645
g17
S'(commonSixGram, zip)'
p646
sg19
g97
sg21
g586
sbag0
(g13
g7
Ntp647
Rp648
(dp649
g17
S'(tokenFieldPredicate, zip)'
p650
sg19
g102
sg21
g586
sbag0
(g13
g7
Ntp651
Rp652
(dp653
g17
S'(suffixArray, zip)'
p654
sg19
g107
sg21
g586
sbag0
(g13
g7
Ntp655
Rp656
(dp657
g17
S'(doubleMetaphone, zip)'
p658
sg19
g112
sg21
g586
sbag0
(g13
g7
Ntp659
Rp660
(dp661
g17
S'(metaphoneToken, zip)'
p662
sg19
g117
sg21
g586
sbag0
(g118
g7
Ntp663
Rp664
(dp665
g122
F0.2
sg17
S'(0.2, zip)'
p666
sg21
g586
sbag0
(g118
g7
Ntp667
Rp668
(dp669
g122
F0.4
sg17
S'(0.4, zip)'
p670
sg21
g586
sbag0
(g118
g7
Ntp671
Rp672
(dp673
g122
F0.6
sg17
S'(0.6, zip)'
p674
sg21
g586
sbag0
(g118
g7
Ntp675
Rp676
(dp677
g122
F0.8
sg17
S'(0.8, zip)'
p678
sg21
g586
sbag0
(g136
g7
Ntp679
Rp680
(dp681
g122
F0.2
sg17
S'(0.2, zip)'
p682
sg21
g586
sbag0
(g136
g7
Ntp683
Rp684
(dp685
g122
F0.4
sg17
S'(0.4, zip)'
p686
sg21
g586
sbag0
(g136
g7
Ntp687
Rp688
(dp689
g122
F0.6
sg17
S'(0.6, zip)'
p690
sg21
g586
sbag0
(g136
g7
Ntp691
Rp692
(dp693
g122
F0.8
sg17
S'(0.8, zip)'
p694
sg21
g586
sbasg21
g586
sg187
S'(zip: ShortString)'
p695
sg189
F-0.0657228382478037
sg190
I00
sbag0
(cdedupe.variables.latlong
LatLongType
p696
g7
Ntp697
Rp698
(dp699
g11
(lp700
g0
(g13
g7
Ntp701
Rp702
(dp703
g17
S'(latLongGridPredicate, geocode)'
p704
sg19
cdedupe.predicates
latLongGridPredicate
p705
sg21
S'geocode'
p706
sbag0
(cdedupe.predicates
ExistsPredicate
p707
g7
Ntp708
Rp709
(dp710
g17
S'(Exists, geocode)'
p711
sg21
g706
sbasg21
g706
sg187
S'(geocode: LatLong)'
p712
sg189
F-0.5155681156067327
sg190
I01
sbag0
(cdedupe.variables.base
MissingDataType
p713
g7
Ntp714
Rp715
(dp716
g190
I00
sg187
S'((geocode: LatLong): Not Missing)'
p717
sg189
F-2.7354529403047754e-06
sbasS'bias'
p718
cnumpy.core.multiarray
scalar
p719
(cnumpy
dtype
p720
(S'f8'
p721
I0
I1
tp722
Rp723
(I3
S'<'
p724
NNNI-1
I-1
I0
tp725
bS'\x80\x02\xdb\xd7\x0fp\x07@'
p726
tp727
Rp728
stp729
Rp730
(dp731
S'primary_fields'
p732
(lp733
g9
ag192
ag343
ag461
ag579
ag698
asS'n_fields'
p734
I7
sS'derived_start'
p735
I6
sb.